target datalayout = "e-m:e-p270:32:32-p271:32:32-p272:64:64-i64:64-i128:128-f80:128-n8:16:32:64-S128"
target triple = "x86_64-pc-linux-gnu"

%struct._ir_insn = type { %struct.anon, %union.anon.5 }
%struct.anon = type { %union.anon, %union.anon.4 }
%union.anon = type { i32 }
%union.anon.4 = type { i32 }
%union.anon.5 = type { %union._ir_val }
%union._ir_val = type { double }
%struct.anon.0 = type { %union.anon.1, %union.anon.3 }
%union.anon.1 = type { i16 }
%union.anon.3 = type { i16 }
%struct.anon.2 = type { i8, i8 }
%struct._ir_ctx = type { ptr, i32, i32, i32, i32, i32, i32, i32, i32, i32, i32, %struct._ir_insn, ptr, ptr, ptr, i32, i32, i32, ptr, ptr, ptr, ptr, ptr, i32, i32, i64, i32, i32, i32, i64, i32, i32, i32, i32, ptr, ptr, ptr, ptr, ptr, ptr, %union.anon.13, ptr, i32, i32, i32, i64, i32, i32, i32, ptr, ptr, ptr, ptr, %struct._ir_strtab, [61 x i32], [14 x i32] }
%union.anon.13 = type { ptr }
%struct._ir_strtab = type { ptr, i32, i32, i32, i32, ptr, i32, i32 }

; Function Attrs: nounwind uwtable
define hidden i32 @_ir_VAR(ptr noundef %0, i32 noundef %1, ptr noundef %2) #0 {
  %4 = alloca ptr, align 8
  %5 = alloca i32, align 4
  %6 = alloca ptr, align 8
  %7 = alloca i32, align 4
  store ptr %0, ptr %4, align 8
  store i32 %1, ptr %5, align 4
  store ptr %2, ptr %6, align 8
  %8 = load ptr, ptr %4, align 8
  %9 = getelementptr inbounds %struct._ir_ctx, ptr %8, i32 0, i32 40
  %10 = load i32, ptr %9, align 8
  store i32 %10, ptr %7, align 4
  br label %11

11:                                               ; preds = %29, %3
  %12 = load ptr, ptr %4, align 8
  %13 = getelementptr inbounds %struct._ir_ctx, ptr %12, i32 0, i32 0
  %14 = load ptr, ptr %13, align 8
  %15 = load i32, ptr %7, align 4
  %16 = sext i32 %15 to i64
  %17 = getelementptr inbounds %struct._ir_insn, ptr %14, i64 %16
  %18 = getelementptr inbounds %struct._ir_insn, ptr %17, i32 0, i32 0
  %19 = getelementptr inbounds %struct.anon, ptr %18, i32 0, i32 0
  %20 = getelementptr inbounds %struct.anon.0, ptr %19, i32 0, i32 0
  %21 = getelementptr inbounds %struct.anon.2, ptr %20, i32 0, i32 0
  %22 = load i8, ptr %21, align 8
  %23 = zext i8 %22 to i64
  %24 = getelementptr inbounds [106 x i32], ptr @ir_op_flags, i64 0, i64 %23
  %25 = load i32, ptr %24, align 4
  %26 = and i32 %25, 4096
  %27 = icmp ne i32 %26, 0
  br i1 %27, label %28, label %29

28:                                               ; preds = %11
  br label %39

29:                                               ; preds = %11
  %30 = load ptr, ptr %4, align 8
  %31 = getelementptr inbounds %struct._ir_ctx, ptr %30, i32 0, i32 0
  %32 = load ptr, ptr %31, align 8
  %33 = load i32, ptr %7, align 4
  %34 = sext i32 %33 to i64
  %35 = getelementptr inbounds %struct._ir_insn, ptr %32, i64 %34
  %36 = getelementptr inbounds %struct._ir_insn, ptr %35, i32 0, i32 0
  %37 = getelementptr inbounds %struct.anon, ptr %36, i32 0, i32 1
  %38 = load i32, ptr %37, align 4
  store i32 %38, ptr %7, align 4
  br label %11

39:                                               ; preds = %28
  %40 = load ptr, ptr %4, align 8
  %41 = load i32, ptr %5, align 4
  %42 = load i32, ptr %7, align 4
  %43 = load ptr, ptr %6, align 8
  %44 = call i32 @ir_var(ptr noundef %40, i32 noundef %41, i32 noundef %42, ptr noundef %43)
  ret i32 %44
}