; Function Attrs: nounwind uwtable
define hidden i32 @_ir_VAR(ptr noundef %0, i32 noundef %1, ptr noundef %2) local_unnamed_addr #0 {
  %4 = getelementptr inbounds i8, ptr %0, i64 248
  %5 = load ptr, ptr %0, align 8
  br label %6

6:                                                ; preds = %6, %3
  %.0.in = phi ptr [ %4, %3 ], [ %12, %6 ]
  %.0 = load i32, ptr %.0.in, align 4
  %7 = sext i32 %.0 to i64
  %8 = getelementptr inbounds %struct._ir_insn, ptr %5, i64 %7
  %9 = load i8, ptr %8, align 8
  %10 = zext i8 %9 to i64
  %11 = add nsw i64 %10, -98
  %.not = icmp ult i64 %11, -9
  %12 = getelementptr inbounds i8, ptr %8, i64 4
  br i1 %.not, label %6, label %13

13:                                               ; preds = %6
  %14 = tail call i32 @ir_var(ptr noundef nonnull %0, i32 noundef %1, i32 noundef %.0, ptr noundef %2)
  ret i32 %14
}